; Function Attrs: null_pointer_is_valid sspstrong uwtable
define internal void @dissect_pcep_no_path_obj(ptr noundef %0, ptr noundef %1, ptr noundef %2, i32 noundef %3, i32 noundef %4, i32 %5, i32 %6) #0 {
  %8 = icmp slt i32 %4, 8
  br i1 %8, label %9, label %11

9:                                                ; preds = %7
  %10 = tail call ptr (ptr, ptr, ptr, ptr, i32, i32, ptr, ...) @proto_tree_add_expert_format(ptr noundef %0, ptr noundef %1, ptr noundef nonnull @ei_pcep_subobject_bad_length, ptr noundef %2, i32 noundef %3, i32 noundef %4, ptr noundef nonnull @.str.1145, i32 noundef %4, i32 noundef 8)
  br label %27

11:                                               ; preds = %7
  %12 = load i32, ptr @hf_pcep_no_path_obj_nature_of_issue, align 4
  %13 = tail call ptr @proto_tree_add_item(ptr noundef %0, i32 noundef %12, ptr noundef %2, i32 noundef %3, i32 noundef 1, i32 noundef 0)
  %14 = load i32, ptr @hf_pcep_no_path_obj_flags, align 4
  %15 = add i32 %3, 1
  %16 = tail call ptr @proto_tree_add_item(ptr noundef %0, i32 noundef %14, ptr noundef %2, i32 noundef %15, i32 noundef 2, i32 noundef 0)
  %17 = load i32, ptr @ett_pcep_obj_no_path, align 4
  %18 = tail call ptr @proto_item_add_subtree(ptr noundef %16, i32 noundef %17)
  %19 = load i32, ptr @hf_pcep_no_path_flags_c, align 4
  %20 = tail call ptr @proto_tree_add_item(ptr noundef %18, i32 noundef %19, ptr noundef %2, i32 noundef %15, i32 noundef 2, i32 noundef 0)
  %21 = load i32, ptr @hf_pcep_no_path_obj_reserved, align 4
  %22 = add i32 %3, 3
  %23 = tail call ptr @proto_tree_add_item(ptr noundef %0, i32 noundef %21, ptr noundef %2, i32 noundef %22, i32 noundef 1, i32 noundef 0)
  %24 = add i32 %3, 4
  %25 = add nsw i32 %4, -8
  %26 = load i32, ptr @ett_pcep_obj_no_path, align 4
  tail call fastcc void @dissect_pcep_tlvs_with_scope(ptr noundef %0, ptr noundef %2, i32 noundef %24, i32 noundef range(i32 0, 2147483640) %25, i32 noundef %26, i16 noundef zeroext 0)
  br label %27

27:                                               ; preds = %11, %9
  ret void
}